target datalayout = "e-m:e-p270:32:32-p271:32:32-p272:64:64-i64:64-i128:128-f80:128-n8:16:32:64-S128"
target triple = "x86_64-pc-linux-gnu"

%struct.code = type { i8, i8, i16 }
%struct.z_stream_s = type { ptr, i32, i64, ptr, i32, i64, ptr, ptr, ptr, ptr, ptr, i32, i64, i64 }
%struct.inflate_state = type { ptr, i32, i32, i32, i32, i32, i32, i64, i64, ptr, i32, i32, i32, i32, ptr, i64, i32, i32, i32, i32, ptr, ptr, i32, i32, i32, i32, i32, i32, ptr, [320 x i16], [288 x i16], [1444 x %struct.code], i32, i32, i32 }

; Function Attrs: nounwind uwtable
define internal i32 @updatewindow(ptr noundef %0, ptr noundef %1, i32 noundef %2) #0 {
  %4 = alloca i32, align 4
  %5 = alloca ptr, align 8
  %6 = alloca ptr, align 8
  %7 = alloca i32, align 4
  %8 = alloca ptr, align 8
  %9 = alloca i32, align 4
  %10 = alloca i32, align 4
  store ptr %0, ptr %5, align 8, !tbaa !3
  store ptr %1, ptr %6, align 8, !tbaa !47
  store i32 %2, ptr %7, align 4, !tbaa !43
  call void @llvm.lifetime.start.p0(i64 8, ptr %8) #4
  call void @llvm.lifetime.start.p0(i64 4, ptr %9) #4
  %11 = load ptr, ptr %5, align 8, !tbaa !3
  %12 = getelementptr inbounds nuw %struct.z_stream_s, ptr %11, i32 0, i32 7
  %13 = load ptr, ptr %12, align 8, !tbaa !8
  store ptr %13, ptr %8, align 8, !tbaa !14
  %14 = load ptr, ptr %8, align 8, !tbaa !14
  %15 = getelementptr inbounds nuw %struct.inflate_state, ptr %14, i32 0, i32 14
  %16 = load ptr, ptr %15, align 8, !tbaa !44
  %17 = icmp eq ptr %16, null
  br i1 %17, label %18, label %38

18:                                               ; preds = %3
  %19 = load ptr, ptr %5, align 8, !tbaa !3
  %20 = getelementptr inbounds nuw %struct.z_stream_s, ptr %19, i32 0, i32 8
  %21 = load ptr, ptr %20, align 8, !tbaa !37
  %22 = load ptr, ptr %5, align 8, !tbaa !3
  %23 = getelementptr inbounds nuw %struct.z_stream_s, ptr %22, i32 0, i32 10
  %24 = load ptr, ptr %23, align 8, !tbaa !46
  %25 = load ptr, ptr %8, align 8, !tbaa !14
  %26 = getelementptr inbounds nuw %struct.inflate_state, ptr %25, i32 0, i32 10
  %27 = load i32, ptr %26, align 8, !tbaa !45
  %28 = shl i32 1, %27
  %29 = call ptr %21(ptr noundef %24, i32 noundef %28, i32 noundef 1)
  %30 = load ptr, ptr %8, align 8, !tbaa !14
  %31 = getelementptr inbounds nuw %struct.inflate_state, ptr %30, i32 0, i32 14
  store ptr %29, ptr %31, align 8, !tbaa !44
  %32 = load ptr, ptr %8, align 8, !tbaa !14
  %33 = getelementptr inbounds nuw %struct.inflate_state, ptr %32, i32 0, i32 14
  %34 = load ptr, ptr %33, align 8, !tbaa !44
  %35 = icmp eq ptr %34, null
  br i1 %35, label %36, label %37

36:                                               ; preds = %18
  store i32 1, ptr %4, align 4
  store i32 1, ptr %10, align 4
  br label %168

37:                                               ; preds = %18
  br label %38

38:                                               ; preds = %37, %3
  %39 = load ptr, ptr %8, align 8, !tbaa !14
  %40 = getelementptr inbounds nuw %struct.inflate_state, ptr %39, i32 0, i32 11
  %41 = load i32, ptr %40, align 4, !tbaa !40
  %42 = icmp eq i32 %41, 0
  br i1 %42, label %43, label %54

43:                                               ; preds = %38
  %44 = load ptr, ptr %8, align 8, !tbaa !14
  %45 = getelementptr inbounds nuw %struct.inflate_state, ptr %44, i32 0, i32 10
  %46 = load i32, ptr %45, align 8, !tbaa !45
  %47 = shl i32 1, %46
  %48 = load ptr, ptr %8, align 8, !tbaa !14
  %49 = getelementptr inbounds nuw %struct.inflate_state, ptr %48, i32 0, i32 11
  store i32 %47, ptr %49, align 4, !tbaa !40
  %50 = load ptr, ptr %8, align 8, !tbaa !14
  %51 = getelementptr inbounds nuw %struct.inflate_state, ptr %50, i32 0, i32 13
  store i32 0, ptr %51, align 4, !tbaa !42
  %52 = load ptr, ptr %8, align 8, !tbaa !14
  %53 = getelementptr inbounds nuw %struct.inflate_state, ptr %52, i32 0, i32 12
  store i32 0, ptr %53, align 8, !tbaa !41
  br label %54

54:                                               ; preds = %43, %38
  %55 = load i32, ptr %7, align 4, !tbaa !43
  %56 = load ptr, ptr %8, align 8, !tbaa !14
  %57 = getelementptr inbounds nuw %struct.inflate_state, ptr %56, i32 0, i32 11
  %58 = load i32, ptr %57, align 4, !tbaa !40
  %59 = icmp uge i32 %55, %58
  br i1 %59, label %60, label %82

60:                                               ; preds = %54
  %61 = load ptr, ptr %8, align 8, !tbaa !14
  %62 = getelementptr inbounds nuw %struct.inflate_state, ptr %61, i32 0, i32 14
  %63 = load ptr, ptr %62, align 8, !tbaa !44
  %64 = load ptr, ptr %6, align 8, !tbaa !47
  %65 = load ptr, ptr %8, align 8, !tbaa !14
  %66 = getelementptr inbounds nuw %struct.inflate_state, ptr %65, i32 0, i32 11
  %67 = load i32, ptr %66, align 4, !tbaa !40
  %68 = zext i32 %67 to i64
  %69 = sub i64 0, %68
  %70 = getelementptr inbounds i8, ptr %64, i64 %69
  %71 = load ptr, ptr %8, align 8, !tbaa !14
  %72 = getelementptr inbounds nuw %struct.inflate_state, ptr %71, i32 0, i32 11
  %73 = load i32, ptr %72, align 4, !tbaa !40
  %74 = zext i32 %73 to i64
  call void @llvm.memcpy.p0.p0.i64(ptr align 1 %63, ptr align 1 %70, i64 %74, i1 false)
  %75 = load ptr, ptr %8, align 8, !tbaa !14
  %76 = getelementptr inbounds nuw %struct.inflate_state, ptr %75, i32 0, i32 13
  store i32 0, ptr %76, align 4, !tbaa !42
  %77 = load ptr, ptr %8, align 8, !tbaa !14
  %78 = getelementptr inbounds nuw %struct.inflate_state, ptr %77, i32 0, i32 11
  %79 = load i32, ptr %78, align 4, !tbaa !40
  %80 = load ptr, ptr %8, align 8, !tbaa !14
  %81 = getelementptr inbounds nuw %struct.inflate_state, ptr %80, i32 0, i32 12
  store i32 %79, ptr %81, align 8, !tbaa !41
  br label %167

82:                                               ; preds = %54
  %83 = load ptr, ptr %8, align 8, !tbaa !14
  %84 = getelementptr inbounds nuw %struct.inflate_state, ptr %83, i32 0, i32 11
  %85 = load i32, ptr %84, align 4, !tbaa !40
  %86 = load ptr, ptr %8, align 8, !tbaa !14
  %87 = getelementptr inbounds nuw %struct.inflate_state, ptr %86, i32 0, i32 13
  %88 = load i32, ptr %87, align 4, !tbaa !42
  %89 = sub i32 %85, %88
  store i32 %89, ptr %9, align 4, !tbaa !43
  %90 = load i32, ptr %9, align 4, !tbaa !43
  %91 = load i32, ptr %7, align 4, !tbaa !43
  %92 = icmp ugt i32 %90, %91
  br i1 %92, label %93, label %95

93:                                               ; preds = %82
  %94 = load i32, ptr %7, align 4, !tbaa !43
  store i32 %94, ptr %9, align 4, !tbaa !43
  br label %95

95:                                               ; preds = %93, %82
  %96 = load ptr, ptr %8, align 8, !tbaa !14
  %97 = getelementptr inbounds nuw %struct.inflate_state, ptr %96, i32 0, i32 14
  %98 = load ptr, ptr %97, align 8, !tbaa !44
  %99 = load ptr, ptr %8, align 8, !tbaa !14
  %100 = getelementptr inbounds nuw %struct.inflate_state, ptr %99, i32 0, i32 13
  %101 = load i32, ptr %100, align 4, !tbaa !42
  %102 = zext i32 %101 to i64
  %103 = getelementptr inbounds nuw i8, ptr %98, i64 %102
  %104 = load ptr, ptr %6, align 8, !tbaa !47
  %105 = load i32, ptr %7, align 4, !tbaa !43
  %106 = zext i32 %105 to i64
  %107 = sub i64 0, %106
  %108 = getelementptr inbounds i8, ptr %104, i64 %107
  %109 = load i32, ptr %9, align 4, !tbaa !43
  %110 = zext i32 %109 to i64
  call void @llvm.memcpy.p0.p0.i64(ptr align 1 %103, ptr align 1 %108, i64 %110, i1 false)
  %111 = load i32, ptr %9, align 4, !tbaa !43
  %112 = load i32, ptr %7, align 4, !tbaa !43
  %113 = sub i32 %112, %111
  store i32 %113, ptr %7, align 4, !tbaa !43
  %114 = load i32, ptr %7, align 4, !tbaa !43
  %115 = icmp ne i32 %114, 0
  br i1 %115, label %116, label %135

116:                                              ; preds = %95
  %117 = load ptr, ptr %8, align 8, !tbaa !14
  %118 = getelementptr inbounds nuw %struct.inflate_state, ptr %117, i32 0, i32 14
  %119 = load ptr, ptr %118, align 8, !tbaa !44
  %120 = load ptr, ptr %6, align 8, !tbaa !47
  %121 = load i32, ptr %7, align 4, !tbaa !43
  %122 = zext i32 %121 to i64
  %123 = sub i64 0, %122
  %124 = getelementptr inbounds i8, ptr %120, i64 %123
  %125 = load i32, ptr %7, align 4, !tbaa !43
  %126 = zext i32 %125 to i64
  call void @llvm.memcpy.p0.p0.i64(ptr align 1 %119, ptr align 1 %124, i64 %126, i1 false)
  %127 = load i32, ptr %7, align 4, !tbaa !43
  %128 = load ptr, ptr %8, align 8, !tbaa !14
  %129 = getelementptr inbounds nuw %struct.inflate_state, ptr %128, i32 0, i32 13
  store i32 %127, ptr %129, align 4, !tbaa !42
  %130 = load ptr, ptr %8, align 8, !tbaa !14
  %131 = getelementptr inbounds nuw %struct.inflate_state, ptr %130, i32 0, i32 11
  %132 = load i32, ptr %131, align 4, !tbaa !40
  %133 = load ptr, ptr %8, align 8, !tbaa !14
  %134 = getelementptr inbounds nuw %struct.inflate_state, ptr %133, i32 0, i32 12
  store i32 %132, ptr %134, align 8, !tbaa !41
  br label %166

135:                                              ; preds = %95
  %136 = load i32, ptr %9, align 4, !tbaa !43
  %137 = load ptr, ptr %8, align 8, !tbaa !14
  %138 = getelementptr inbounds nuw %struct.inflate_state, ptr %137, i32 0, i32 13
  %139 = load i32, ptr %138, align 4, !tbaa !42
  %140 = add i32 %139, %136
  store i32 %140, ptr %138, align 4, !tbaa !42
  %141 = load ptr, ptr %8, align 8, !tbaa !14
  %142 = getelementptr inbounds nuw %struct.inflate_state, ptr %141, i32 0, i32 13
  %143 = load i32, ptr %142, align 4, !tbaa !42
  %144 = load ptr, ptr %8, align 8, !tbaa !14
  %145 = getelementptr inbounds nuw %struct.inflate_state, ptr %144, i32 0, i32 11
  %146 = load i32, ptr %145, align 4, !tbaa !40
  %147 = icmp eq i32 %143, %146
  br i1 %147, label %148, label %151

148:                                              ; preds = %135
  %149 = load ptr, ptr %8, align 8, !tbaa !14
  %150 = getelementptr inbounds nuw %struct.inflate_state, ptr %149, i32 0, i32 13
  store i32 0, ptr %150, align 4, !tbaa !42
  br label %151

151:                                              ; preds = %148, %135
  %152 = load ptr, ptr %8, align 8, !tbaa !14
  %153 = getelementptr inbounds nuw %struct.inflate_state, ptr %152, i32 0, i32 12
  %154 = load i32, ptr %153, align 8, !tbaa !41
  %155 = load ptr, ptr %8, align 8, !tbaa !14
  %156 = getelementptr inbounds nuw %struct.inflate_state, ptr %155, i32 0, i32 11
  %157 = load i32, ptr %156, align 4, !tbaa !40
  %158 = icmp ult i32 %154, %157
  br i1 %158, label %159, label %165

159:                                              ; preds = %151
  %160 = load i32, ptr %9, align 4, !tbaa !43
  %161 = load ptr, ptr %8, align 8, !tbaa !14
  %162 = getelementptr inbounds nuw %struct.inflate_state, ptr %161, i32 0, i32 12
  %163 = load i32, ptr %162, align 8, !tbaa !41
  %164 = add i32 %163, %160
  store i32 %164, ptr %162, align 8, !tbaa !41
  br label %165

165:                                              ; preds = %159, %151
  br label %166

166:                                              ; preds = %165, %116
  br label %167

167:                                              ; preds = %166, %60
  store i32 0, ptr %4, align 4
  store i32 1, ptr %10, align 4
  br label %168

168:                                              ; preds = %167, %36
  call void @llvm.lifetime.end.p0(i64 4, ptr %9) #4
  call void @llvm.lifetime.end.p0(i64 8, ptr %8) #4
  %169 = load i32, ptr %4, align 4
  ret i32 %169
}

; Function Attrs: nounwind uwtable
define internal i32 @inflateStateCheck(ptr noundef %0) #0 {
  %2 = alloca i32, align 4
  %3 = alloca ptr, align 8
  %4 = alloca ptr, align 8
  %5 = alloca i32, align 4
  store ptr %0, ptr %3, align 8, !tbaa !3
  call void @llvm.lifetime.start.p0(i64 8, ptr %4) #4
  %6 = load ptr, ptr %3, align 8, !tbaa !3
  %7 = icmp eq ptr %6, null
  br i1 %7, label %18, label %8

8:                                                ; preds = %1
  %9 = load ptr, ptr %3, align 8, !tbaa !3
  %10 = getelementptr inbounds nuw %struct.z_stream_s, ptr %9, i32 0, i32 8
  %11 = load ptr, ptr %10, align 8, !tbaa !37
  %12 = icmp eq ptr %11, null
  br i1 %12, label %18, label %13

13:                                               ; preds = %8
  %14 = load ptr, ptr %3, align 8, !tbaa !3
  %15 = getelementptr inbounds nuw %struct.z_stream_s, ptr %14, i32 0, i32 9
  %16 = load ptr, ptr %15, align 8, !tbaa !38
  %17 = icmp eq ptr %16, null
  br i1 %17, label %18, label %19

18:                                               ; preds = %13, %8, %1
  store i32 1, ptr %2, align 4
  store i32 1, ptr %5, align 4
  br label %43

19:                                               ; preds = %13
  %20 = load ptr, ptr %3, align 8, !tbaa !3
  %21 = getelementptr inbounds nuw %struct.z_stream_s, ptr %20, i32 0, i32 7
  %22 = load ptr, ptr %21, align 8, !tbaa !8
  store ptr %22, ptr %4, align 8, !tbaa !14
  %23 = load ptr, ptr %4, align 8, !tbaa !14
  %24 = icmp eq ptr %23, null
  br i1 %24, label %41, label %25

25:                                               ; preds = %19
  %26 = load ptr, ptr %4, align 8, !tbaa !14
  %27 = getelementptr inbounds nuw %struct.inflate_state, ptr %26, i32 0, i32 0
  %28 = load ptr, ptr %27, align 8, !tbaa !39
  %29 = load ptr, ptr %3, align 8, !tbaa !3
  %30 = icmp ne ptr %28, %29
  br i1 %30, label %41, label %31

31:                                               ; preds = %25
  %32 = load ptr, ptr %4, align 8, !tbaa !14
  %33 = getelementptr inbounds nuw %struct.inflate_state, ptr %32, i32 0, i32 1
  %34 = load i32, ptr %33, align 8, !tbaa !24
  %35 = icmp ult i32 %34, 16180
  br i1 %35, label %41, label %36

36:                                               ; preds = %31
  %37 = load ptr, ptr %4, align 8, !tbaa !14
  %38 = getelementptr inbounds nuw %struct.inflate_state, ptr %37, i32 0, i32 1
  %39 = load i32, ptr %38, align 8, !tbaa !24
  %40 = icmp ugt i32 %39, 16211
  br i1 %40, label %41, label %42

41:                                               ; preds = %36, %31, %25, %19
  store i32 1, ptr %2, align 4
  store i32 1, ptr %5, align 4
  br label %43

42:                                               ; preds = %36
  store i32 0, ptr %2, align 4
  store i32 1, ptr %5, align 4
  br label %43

43:                                               ; preds = %42, %41, %18
  call void @llvm.lifetime.end.p0(i64 8, ptr %4) #4
  %44 = load i32, ptr %2, align 4
  ret i32 %44
}

; Function Attrs: nounwind uwtable
define i32 @inflateSetDictionary(ptr noundef %0, ptr noundef %1, i32 noundef %2) #0 {
  %4 = alloca i32, align 4
  %5 = alloca ptr, align 8
  %6 = alloca ptr, align 8
  %7 = alloca i32, align 4
  %8 = alloca ptr, align 8
  %9 = alloca i64, align 8
  %10 = alloca i32, align 4
  %11 = alloca i32, align 4
  store ptr %0, ptr %5, align 8, !tbaa !3
  store ptr %1, ptr %6, align 8, !tbaa !47
  store i32 %2, ptr %7, align 4, !tbaa !43
  call void @llvm.lifetime.start.p0(i64 8, ptr %8) #4
  call void @llvm.lifetime.start.p0(i64 8, ptr %9) #4
  call void @llvm.lifetime.start.p0(i64 4, ptr %10) #4
  %12 = load ptr, ptr %5, align 8, !tbaa !3
  %13 = call i32 @inflateStateCheck(ptr noundef %12)
  %14 = icmp ne i32 %13, 0
  br i1 %14, label %15, label %16

15:                                               ; preds = %3
  store i32 -2, ptr %4, align 4
  store i32 1, ptr %11, align 4
  br label %64

16:                                               ; preds = %3
  %17 = load ptr, ptr %5, align 8, !tbaa !3
  %18 = getelementptr inbounds nuw %struct.z_stream_s, ptr %17, i32 0, i32 7
  %19 = load ptr, ptr %18, align 8, !tbaa !8
  store ptr %19, ptr %8, align 8, !tbaa !14
  %20 = load ptr, ptr %8, align 8, !tbaa !14
  %21 = getelementptr inbounds nuw %struct.inflate_state, ptr %20, i32 0, i32 3
  %22 = load i32, ptr %21, align 8, !tbaa !22
  %23 = icmp ne i32 %22, 0
  br i1 %23, label %24, label %30

24:                                               ; preds = %16
  %25 = load ptr, ptr %8, align 8, !tbaa !14
  %26 = getelementptr inbounds nuw %struct.inflate_state, ptr %25, i32 0, i32 1
  %27 = load i32, ptr %26, align 8, !tbaa !24
  %28 = icmp ne i32 %27, 16190
  br i1 %28, label %29, label %30

29:                                               ; preds = %24
  store i32 -2, ptr %4, align 4
  store i32 1, ptr %11, align 4
  br label %64

30:                                               ; preds = %24, %16
  %31 = load ptr, ptr %8, align 8, !tbaa !14
  %32 = getelementptr inbounds nuw %struct.inflate_state, ptr %31, i32 0, i32 1
  %33 = load i32, ptr %32, align 8, !tbaa !24
  %34 = icmp eq i32 %33, 16190
  br i1 %34, label %35, label %48

35:                                               ; preds = %30
  %36 = call i64 @adler32(i64 noundef 0, ptr noundef null, i32 noundef 0)
  store i64 %36, ptr %9, align 8, !tbaa !53
  %37 = load i64, ptr %9, align 8, !tbaa !53
  %38 = load ptr, ptr %6, align 8, !tbaa !47
  %39 = load i32, ptr %7, align 4, !tbaa !43
  %40 = call i64 @adler32(i64 noundef %37, ptr noundef %38, i32 noundef %39)
  store i64 %40, ptr %9, align 8, !tbaa !53
  %41 = load i64, ptr %9, align 8, !tbaa !53
  %42 = load ptr, ptr %8, align 8, !tbaa !14
  %43 = getelementptr inbounds nuw %struct.inflate_state, ptr %42, i32 0, i32 7
  %44 = load i64, ptr %43, align 8, !tbaa !56
  %45 = icmp ne i64 %41, %44
  br i1 %45, label %46, label %47

46:                                               ; preds = %35
  store i32 -3, ptr %4, align 4
  store i32 1, ptr %11, align 4
  br label %64

47:                                               ; preds = %35
  br label %48

48:                                               ; preds = %47, %30
  %49 = load ptr, ptr %5, align 8, !tbaa !3
  %50 = load ptr, ptr %6, align 8, !tbaa !47
  %51 = load i32, ptr %7, align 4, !tbaa !43
  %52 = zext i32 %51 to i64
  %53 = getelementptr inbounds nuw i8, ptr %50, i64 %52
  %54 = load i32, ptr %7, align 4, !tbaa !43
  %55 = call i32 @updatewindow(ptr noundef %49, ptr noundef %53, i32 noundef %54)
  store i32 %55, ptr %10, align 4, !tbaa !43
  %56 = load i32, ptr %10, align 4, !tbaa !43
  %57 = icmp ne i32 %56, 0
  br i1 %57, label %58, label %61

58:                                               ; preds = %48
  %59 = load ptr, ptr %8, align 8, !tbaa !14
  %60 = getelementptr inbounds nuw %struct.inflate_state, ptr %59, i32 0, i32 1
  store i32 16210, ptr %60, align 8, !tbaa !24
  store i32 -4, ptr %4, align 4
  store i32 1, ptr %11, align 4
  br label %64

61:                                               ; preds = %48
  %62 = load ptr, ptr %8, align 8, !tbaa !14
  %63 = getelementptr inbounds nuw %struct.inflate_state, ptr %62, i32 0, i32 4
  store i32 1, ptr %63, align 4, !tbaa !26
  store i32 0, ptr %4, align 4
  store i32 1, ptr %11, align 4
  br label %64

64:                                               ; preds = %61, %58, %46, %29, %15
  call void @llvm.lifetime.end.p0(i64 4, ptr %10) #4
  call void @llvm.lifetime.end.p0(i64 8, ptr %9) #4
  call void @llvm.lifetime.end.p0(i64 8, ptr %8) #4
  %65 = load i32, ptr %4, align 4
  ret i32 %65
}